; Function Attrs: mustprogress uwtable
define internal void @_ZL25llama_sampler_chain_applyP13llama_samplerP22llama_token_data_array(ptr noundef readonly captures(none) %0, ptr noundef %1) #0 personality ptr @__gxx_personality_v0 {
  %3 = alloca %struct.time_meas, align 8
  %4 = getelementptr inbounds nuw i8, ptr %0, i64 8
  %5 = load ptr, ptr %4, align 8, !tbaa !9
  call void @llvm.lifetime.start.p0(i64 16, ptr nonnull %3) #33
  %6 = getelementptr inbounds nuw i8, ptr %5, i64 32
  %7 = load i8, ptr %5, align 8, !tbaa !208, !range !50, !noundef !51
  %8 = trunc nuw i8 %7 to i1
  call void @_ZN9time_measC1ERlb(ptr noundef nonnull align 8 dereferenceable(16) %3, ptr noundef nonnull align 8 dereferenceable(8) %6, i1 noundef zeroext %8)
  %9 = getelementptr inbounds nuw i8, ptr %5, i64 8
  %10 = load ptr, ptr %9, align 8, !tbaa !193
  %11 = getelementptr inbounds nuw i8, ptr %5, i64 16
  %12 = load ptr, ptr %11, align 8, !tbaa !193
  %.not13 = icmp eq ptr %10, %12
  br i1 %.not13, label %._crit_edge, label %.lr.ph

._crit_edge:                                      ; preds = %llama_sampler_apply.exit, %2
  call void @_ZN9time_measD1Ev(ptr noundef nonnull align 8 dereferenceable(16) %3) #33
  call void @llvm.lifetime.end.p0(i64 16, ptr nonnull %3) #33
  ret void

.lr.ph:                                           ; preds = %2, %llama_sampler_apply.exit
  %.sroa.010.014 = phi ptr [ %19, %llama_sampler_apply.exit ], [ %10, %2 ]
  %13 = load ptr, ptr %.sroa.010.014, align 8, !tbaa !39
  %14 = load ptr, ptr %13, align 8, !tbaa !3
  %15 = getelementptr inbounds nuw i8, ptr %14, i64 16
  %16 = load ptr, ptr %15, align 8, !tbaa !13
  %.not.i = icmp eq ptr %16, null
  br i1 %.not.i, label %17, label %18

17:                                               ; preds = %.lr.ph
  invoke void (ptr, i32, ptr, ...) @ggml_abort(ptr noundef nonnull @.str.1, i32 noundef 341, ptr noundef nonnull @.str.2, ptr noundef nonnull @.str.3) #31
          to label %.noexc unwind label %.loopexit.split-lp

.noexc:                                           ; preds = %17
  unreachable

18:                                               ; preds = %.lr.ph
  invoke void %16(ptr noundef nonnull %13, ptr noundef %1)
          to label %llama_sampler_apply.exit unwind label %.loopexit

llama_sampler_apply.exit:                         ; preds = %18
  %19 = getelementptr inbounds nuw i8, ptr %.sroa.010.014, i64 8
  %.not = icmp eq ptr %19, %12
  br i1 %.not, label %._crit_edge, label %.lr.ph

.loopexit:                                        ; preds = %18
  %lpad.loopexit = landingpad { ptr, i32 }
          cleanup
  br label %20

.loopexit.split-lp:                               ; preds = %17
  %lpad.loopexit.split-lp = landingpad { ptr, i32 }
          cleanup
  br label %20

20:                                               ; preds = %.loopexit.split-lp, %.loopexit
  %lpad.phi = phi { ptr, i32 } [ %lpad.loopexit, %.loopexit ], [ %lpad.loopexit.split-lp, %.loopexit.split-lp ]
  call void @_ZN9time_measD1Ev(ptr noundef nonnull align 8 dereferenceable(16) %3) #33
  call void @llvm.lifetime.end.p0(i64 16, ptr nonnull %3) #33
  resume { ptr, i32 } %lpad.phi
}